; Function Attrs: mustprogress uwtable
define hidden void @_ZNK2dd3fdd13bits2rationalERK7svectorIbjE(ptr noalias sret(%class.rational) align 8 %agg.result, ptr nocapture noundef nonnull readonly align 8 dereferenceable(40) %this, ptr nocapture noundef nonnull readonly align 8 dereferenceable(8) %v) local_unnamed_addr #3 align 2 personality ptr @__gxx_personality_v0 {
entry:
  %ref.tmp = alloca %class.rational, align 8
  %m_kind.i.i.i = getelementptr inbounds i8, ptr %agg.result, i64 4
  %bf.load.i.i.i = load i8, ptr %m_kind.i.i.i, align 4
  %bf.clear3.i.i.i = and i8 %bf.load.i.i.i, -4
  %m_ptr.i.i.i = getelementptr inbounds i8, ptr %agg.result, i64 8
  store ptr null, ptr %m_ptr.i.i.i, align 8
  %m_den.i.i = getelementptr inbounds i8, ptr %agg.result, i64 16
  store i32 1, ptr %m_den.i.i, align 8
  %m_kind.i1.i.i = getelementptr inbounds i8, ptr %agg.result, i64 20
  %bf.load.i2.i.i = load i8, ptr %m_kind.i1.i.i, align 4
  %bf.clear3.i3.i.i = and i8 %bf.load.i2.i.i, -4
  store i8 %bf.clear3.i3.i.i, ptr %m_kind.i1.i.i, align 4
  %m_ptr.i4.i.i = getelementptr inbounds i8, ptr %agg.result, i64 24
  store ptr null, ptr %m_ptr.i4.i.i, align 8
  %0 = load ptr, ptr @_ZN8rational13g_mpq_managerE, align 8
  store i32 0, ptr %agg.result, align 8
  store i8 %bf.clear3.i.i.i, ptr %m_kind.i.i.i, align 4
  tail call void @_ZN11mpz_managerILb1EE3delEPS0_R3mpz(ptr noundef nonnull %0, ptr noundef nonnull align 8 dereferenceable(16) %m_den.i.i)
  store i32 1, ptr %m_den.i.i, align 8
  %m_den.i.i5 = getelementptr inbounds i8, ptr %ref.tmp, i64 16
  br label %for.cond

for.cond:                                         ; preds = %for.inc, %entry
  %indvars.iv = phi i64 [ %indvars.iv.next, %for.inc ], [ 0, %entry ]
  %1 = load ptr, ptr %this, align 8
  %cmp.i.i = icmp eq ptr %1, null
  br i1 %cmp.i.i, label %invoke.cont, label %if.end.i.i

if.end.i.i:                                       ; preds = %for.cond
  %arrayidx.i.i = getelementptr inbounds i8, ptr %1, i64 -4
  %2 = load i32, ptr %arrayidx.i.i, align 4
  br label %invoke.cont

invoke.cont:                                      ; preds = %if.end.i.i, %for.cond
  %retval.0.i.i = phi i32 [ %2, %if.end.i.i ], [ 0, %for.cond ]
  %3 = zext i32 %retval.0.i.i to i64
  %cmp = icmp ult i64 %indvars.iv, %3
  br i1 %cmp, label %for.body, label %nrvo.skipdtor

for.body:                                         ; preds = %invoke.cont
  %4 = load ptr, ptr %v, align 8
  %arrayidx.i = getelementptr inbounds i8, ptr %4, i64 %indvars.iv
  %5 = load i8, ptr %arrayidx.i, align 1
  %6 = and i8 %5, 1
  %tobool.not = icmp eq i8 %6, 0
  br i1 %tobool.not, label %for.inc, label %if.then

if.then:                                          ; preds = %for.body
  %7 = trunc i64 %indvars.iv to i32
  invoke void @_ZN8rational12power_of_twoEj(ptr nonnull sret(%class.rational) align 8 %ref.tmp, i32 noundef %7)
          to label %invoke.cont4 unwind label %lpad

invoke.cont4:                                     ; preds = %if.then
  %8 = load ptr, ptr @_ZN8rational13g_mpq_managerE, align 8
  invoke void @_ZN11mpq_managerILb1EE3addERK3mpqS3_RS1_(ptr noundef nonnull align 8 dereferenceable(728) %8, ptr noundef nonnull align 8 dereferenceable(32) %agg.result, ptr noundef nonnull align 8 dereferenceable(32) %ref.tmp, ptr noundef nonnull align 8 dereferenceable(32) %agg.result)
          to label %invoke.cont6 unwind label %lpad5

invoke.cont6:                                     ; preds = %invoke.cont4
  %9 = load ptr, ptr @_ZN8rational13g_mpq_managerE, align 8
  invoke void @_ZN11mpz_managerILb1EE3delEPS0_R3mpz(ptr noundef %9, ptr noundef nonnull align 8 dereferenceable(16) %ref.tmp)
          to label %.noexc.i unwind label %terminate.lpad.i

.noexc.i:                                         ; preds = %invoke.cont6
  invoke void @_ZN11mpz_managerILb1EE3delEPS0_R3mpz(ptr noundef %9, ptr noundef nonnull align 8 dereferenceable(16) %m_den.i.i5)
          to label %for.inc unwind label %terminate.lpad.i

terminate.lpad.i:                                 ; preds = %.noexc.i, %invoke.cont6
  %10 = landingpad { ptr, i32 }
          catch ptr null
  %11 = extractvalue { ptr, i32 } %10, 0
  call void @__clang_call_terminate(ptr %11) #16
  unreachable

lpad:                                             ; preds = %if.then
  %12 = landingpad { ptr, i32 }
          cleanup
  br label %ehcleanup

lpad5:                                            ; preds = %invoke.cont4
  %13 = landingpad { ptr, i32 }
          cleanup
  call void @_ZN8rationalD2Ev(ptr noundef nonnull align 8 dereferenceable(32) %ref.tmp) #14
  br label %ehcleanup

for.inc:                                          ; preds = %.noexc.i, %for.body
  %indvars.iv.next = add nuw nsw i64 %indvars.iv, 1
  br label %for.cond, !llvm.loop !86

nrvo.skipdtor:                                    ; preds = %invoke.cont
  ret void

ehcleanup:                                        ; preds = %lpad5, %lpad
  %.pn = phi { ptr, i32 } [ %13, %lpad5 ], [ %12, %lpad ]
  call void @_ZN8rationalD2Ev(ptr noundef nonnull align 8 dereferenceable(32) %agg.result) #14
  resume { ptr, i32 } %.pn
}